
HackathonProject.elf:     file format elf32-avr

Sections:
Idx Name          Size      VMA       LMA       File off  Algn
  0 .text         0000028a  00000000  00000000  00000054  2**1
                  CONTENTS, ALLOC, LOAD, READONLY, CODE
  1 .data         00000000  00802000  00802000  000002de  2**0
                  CONTENTS, ALLOC, LOAD, DATA
  2 .comment      00000030  00000000  00000000  000002de  2**0
                  CONTENTS, READONLY
  3 .note.gnu.avr.deviceinfo 00000040  00000000  00000000  00000310  2**2
                  CONTENTS, READONLY
  4 .debug_aranges 00000050  00000000  00000000  00000350  2**0
                  CONTENTS, READONLY, DEBUGGING
  5 .debug_info   000042dd  00000000  00000000  000003a0  2**0
                  CONTENTS, READONLY, DEBUGGING
  6 .debug_abbrev 00003c43  00000000  00000000  0000467d  2**0
                  CONTENTS, READONLY, DEBUGGING
  7 .debug_line   00000643  00000000  00000000  000082c0  2**0
                  CONTENTS, READONLY, DEBUGGING
  8 .debug_frame  000000a8  00000000  00000000  00008904  2**2
                  CONTENTS, READONLY, DEBUGGING
  9 .debug_str    00002bde  00000000  00000000  000089ac  2**0
                  CONTENTS, READONLY, DEBUGGING
 10 .debug_loc    000000f9  00000000  00000000  0000b58a  2**0
                  CONTENTS, READONLY, DEBUGGING
 11 .debug_ranges 00000030  00000000  00000000  0000b683  2**0
                  CONTENTS, READONLY, DEBUGGING

Disassembly of section .text:

00000000 <__vectors>:
   0:	0c 94 fe 00 	jmp	0x1fc	; 0x1fc <__ctors_end>
   4:	0c 94 0e 01 	jmp	0x21c	; 0x21c <__bad_interrupt>
   8:	0c 94 0e 01 	jmp	0x21c	; 0x21c <__bad_interrupt>
   c:	0c 94 0e 01 	jmp	0x21c	; 0x21c <__bad_interrupt>
  10:	0c 94 0e 01 	jmp	0x21c	; 0x21c <__bad_interrupt>
  14:	0c 94 0e 01 	jmp	0x21c	; 0x21c <__bad_interrupt>
  18:	0c 94 0e 01 	jmp	0x21c	; 0x21c <__bad_interrupt>
  1c:	0c 94 0e 01 	jmp	0x21c	; 0x21c <__bad_interrupt>
  20:	0c 94 0e 01 	jmp	0x21c	; 0x21c <__bad_interrupt>
  24:	0c 94 0e 01 	jmp	0x21c	; 0x21c <__bad_interrupt>
  28:	0c 94 0e 01 	jmp	0x21c	; 0x21c <__bad_interrupt>
  2c:	0c 94 0e 01 	jmp	0x21c	; 0x21c <__bad_interrupt>
  30:	0c 94 0e 01 	jmp	0x21c	; 0x21c <__bad_interrupt>
  34:	0c 94 0e 01 	jmp	0x21c	; 0x21c <__bad_interrupt>
  38:	0c 94 0e 01 	jmp	0x21c	; 0x21c <__bad_interrupt>
  3c:	0c 94 0e 01 	jmp	0x21c	; 0x21c <__bad_interrupt>
  40:	0c 94 0e 01 	jmp	0x21c	; 0x21c <__bad_interrupt>
  44:	0c 94 0e 01 	jmp	0x21c	; 0x21c <__bad_interrupt>
  48:	0c 94 0e 01 	jmp	0x21c	; 0x21c <__bad_interrupt>
  4c:	0c 94 0e 01 	jmp	0x21c	; 0x21c <__bad_interrupt>
  50:	0c 94 0e 01 	jmp	0x21c	; 0x21c <__bad_interrupt>
  54:	0c 94 0e 01 	jmp	0x21c	; 0x21c <__bad_interrupt>
  58:	0c 94 0e 01 	jmp	0x21c	; 0x21c <__bad_interrupt>
  5c:	0c 94 0e 01 	jmp	0x21c	; 0x21c <__bad_interrupt>
  60:	0c 94 0e 01 	jmp	0x21c	; 0x21c <__bad_interrupt>
  64:	0c 94 0e 01 	jmp	0x21c	; 0x21c <__bad_interrupt>
  68:	0c 94 0e 01 	jmp	0x21c	; 0x21c <__bad_interrupt>
  6c:	0c 94 0e 01 	jmp	0x21c	; 0x21c <__bad_interrupt>
  70:	0c 94 0e 01 	jmp	0x21c	; 0x21c <__bad_interrupt>
  74:	0c 94 0e 01 	jmp	0x21c	; 0x21c <__bad_interrupt>
  78:	0c 94 0e 01 	jmp	0x21c	; 0x21c <__bad_interrupt>
  7c:	0c 94 0e 01 	jmp	0x21c	; 0x21c <__bad_interrupt>
  80:	0c 94 0e 01 	jmp	0x21c	; 0x21c <__bad_interrupt>
  84:	0c 94 0e 01 	jmp	0x21c	; 0x21c <__bad_interrupt>
  88:	0c 94 0e 01 	jmp	0x21c	; 0x21c <__bad_interrupt>
  8c:	0c 94 0e 01 	jmp	0x21c	; 0x21c <__bad_interrupt>
  90:	0c 94 0e 01 	jmp	0x21c	; 0x21c <__bad_interrupt>
  94:	0c 94 0e 01 	jmp	0x21c	; 0x21c <__bad_interrupt>
  98:	0c 94 0e 01 	jmp	0x21c	; 0x21c <__bad_interrupt>
  9c:	0c 94 0e 01 	jmp	0x21c	; 0x21c <__bad_interrupt>
  a0:	0c 94 0e 01 	jmp	0x21c	; 0x21c <__bad_interrupt>
  a4:	0c 94 0e 01 	jmp	0x21c	; 0x21c <__bad_interrupt>
  a8:	0c 94 0e 01 	jmp	0x21c	; 0x21c <__bad_interrupt>
  ac:	0c 94 0e 01 	jmp	0x21c	; 0x21c <__bad_interrupt>
  b0:	0c 94 0e 01 	jmp	0x21c	; 0x21c <__bad_interrupt>
  b4:	0c 94 0e 01 	jmp	0x21c	; 0x21c <__bad_interrupt>
  b8:	0c 94 0e 01 	jmp	0x21c	; 0x21c <__bad_interrupt>
  bc:	0c 94 0e 01 	jmp	0x21c	; 0x21c <__bad_interrupt>
  c0:	0c 94 0e 01 	jmp	0x21c	; 0x21c <__bad_interrupt>
  c4:	0c 94 0e 01 	jmp	0x21c	; 0x21c <__bad_interrupt>
  c8:	0c 94 0e 01 	jmp	0x21c	; 0x21c <__bad_interrupt>
  cc:	0c 94 0e 01 	jmp	0x21c	; 0x21c <__bad_interrupt>
  d0:	0c 94 0e 01 	jmp	0x21c	; 0x21c <__bad_interrupt>
  d4:	0c 94 0e 01 	jmp	0x21c	; 0x21c <__bad_interrupt>
  d8:	0c 94 0e 01 	jmp	0x21c	; 0x21c <__bad_interrupt>
  dc:	0c 94 0e 01 	jmp	0x21c	; 0x21c <__bad_interrupt>
  e0:	0c 94 0e 01 	jmp	0x21c	; 0x21c <__bad_interrupt>
  e4:	0c 94 0e 01 	jmp	0x21c	; 0x21c <__bad_interrupt>
  e8:	0c 94 0e 01 	jmp	0x21c	; 0x21c <__bad_interrupt>
  ec:	0c 94 0e 01 	jmp	0x21c	; 0x21c <__bad_interrupt>
  f0:	0c 94 0e 01 	jmp	0x21c	; 0x21c <__bad_interrupt>
  f4:	0c 94 0e 01 	jmp	0x21c	; 0x21c <__bad_interrupt>
  f8:	0c 94 0e 01 	jmp	0x21c	; 0x21c <__bad_interrupt>
  fc:	0c 94 0e 01 	jmp	0x21c	; 0x21c <__bad_interrupt>
 100:	0c 94 0e 01 	jmp	0x21c	; 0x21c <__bad_interrupt>
 104:	0c 94 0e 01 	jmp	0x21c	; 0x21c <__bad_interrupt>
 108:	0c 94 0e 01 	jmp	0x21c	; 0x21c <__bad_interrupt>
 10c:	0c 94 0e 01 	jmp	0x21c	; 0x21c <__bad_interrupt>
 110:	0c 94 0e 01 	jmp	0x21c	; 0x21c <__bad_interrupt>
 114:	0c 94 0e 01 	jmp	0x21c	; 0x21c <__bad_interrupt>
 118:	0c 94 0e 01 	jmp	0x21c	; 0x21c <__bad_interrupt>
 11c:	0c 94 0e 01 	jmp	0x21c	; 0x21c <__bad_interrupt>
 120:	0c 94 0e 01 	jmp	0x21c	; 0x21c <__bad_interrupt>
 124:	0c 94 0e 01 	jmp	0x21c	; 0x21c <__bad_interrupt>
 128:	0c 94 0e 01 	jmp	0x21c	; 0x21c <__bad_interrupt>
 12c:	0c 94 0e 01 	jmp	0x21c	; 0x21c <__bad_interrupt>
 130:	0c 94 0e 01 	jmp	0x21c	; 0x21c <__bad_interrupt>
 134:	0c 94 0e 01 	jmp	0x21c	; 0x21c <__bad_interrupt>
 138:	0c 94 0e 01 	jmp	0x21c	; 0x21c <__bad_interrupt>
 13c:	0c 94 0e 01 	jmp	0x21c	; 0x21c <__bad_interrupt>
 140:	0c 94 0e 01 	jmp	0x21c	; 0x21c <__bad_interrupt>
 144:	0c 94 0e 01 	jmp	0x21c	; 0x21c <__bad_interrupt>
 148:	0c 94 0e 01 	jmp	0x21c	; 0x21c <__bad_interrupt>
 14c:	0c 94 0e 01 	jmp	0x21c	; 0x21c <__bad_interrupt>
 150:	0c 94 0e 01 	jmp	0x21c	; 0x21c <__bad_interrupt>
 154:	0c 94 0e 01 	jmp	0x21c	; 0x21c <__bad_interrupt>
 158:	0c 94 0e 01 	jmp	0x21c	; 0x21c <__bad_interrupt>
 15c:	0c 94 0e 01 	jmp	0x21c	; 0x21c <__bad_interrupt>
 160:	0c 94 0e 01 	jmp	0x21c	; 0x21c <__bad_interrupt>
 164:	0c 94 0e 01 	jmp	0x21c	; 0x21c <__bad_interrupt>
 168:	0c 94 0e 01 	jmp	0x21c	; 0x21c <__bad_interrupt>
 16c:	0c 94 0e 01 	jmp	0x21c	; 0x21c <__bad_interrupt>
 170:	0c 94 0e 01 	jmp	0x21c	; 0x21c <__bad_interrupt>
 174:	0c 94 0e 01 	jmp	0x21c	; 0x21c <__bad_interrupt>
 178:	0c 94 0e 01 	jmp	0x21c	; 0x21c <__bad_interrupt>
 17c:	0c 94 0e 01 	jmp	0x21c	; 0x21c <__bad_interrupt>
 180:	0c 94 0e 01 	jmp	0x21c	; 0x21c <__bad_interrupt>
 184:	0c 94 0e 01 	jmp	0x21c	; 0x21c <__bad_interrupt>
 188:	0c 94 0e 01 	jmp	0x21c	; 0x21c <__bad_interrupt>
 18c:	0c 94 0e 01 	jmp	0x21c	; 0x21c <__bad_interrupt>
 190:	0c 94 0e 01 	jmp	0x21c	; 0x21c <__bad_interrupt>
 194:	0c 94 0e 01 	jmp	0x21c	; 0x21c <__bad_interrupt>
 198:	0c 94 0e 01 	jmp	0x21c	; 0x21c <__bad_interrupt>
 19c:	0c 94 0e 01 	jmp	0x21c	; 0x21c <__bad_interrupt>
 1a0:	0c 94 0e 01 	jmp	0x21c	; 0x21c <__bad_interrupt>
 1a4:	0c 94 0e 01 	jmp	0x21c	; 0x21c <__bad_interrupt>
 1a8:	0c 94 0e 01 	jmp	0x21c	; 0x21c <__bad_interrupt>
 1ac:	0c 94 0e 01 	jmp	0x21c	; 0x21c <__bad_interrupt>
 1b0:	0c 94 0e 01 	jmp	0x21c	; 0x21c <__bad_interrupt>
 1b4:	0c 94 0e 01 	jmp	0x21c	; 0x21c <__bad_interrupt>
 1b8:	0c 94 0e 01 	jmp	0x21c	; 0x21c <__bad_interrupt>
 1bc:	0c 94 0e 01 	jmp	0x21c	; 0x21c <__bad_interrupt>
 1c0:	0c 94 0e 01 	jmp	0x21c	; 0x21c <__bad_interrupt>
 1c4:	0c 94 0e 01 	jmp	0x21c	; 0x21c <__bad_interrupt>
 1c8:	0c 94 0e 01 	jmp	0x21c	; 0x21c <__bad_interrupt>
 1cc:	0c 94 0e 01 	jmp	0x21c	; 0x21c <__bad_interrupt>
 1d0:	0c 94 0e 01 	jmp	0x21c	; 0x21c <__bad_interrupt>
 1d4:	0c 94 0e 01 	jmp	0x21c	; 0x21c <__bad_interrupt>
 1d8:	0c 94 0e 01 	jmp	0x21c	; 0x21c <__bad_interrupt>
 1dc:	0c 94 0e 01 	jmp	0x21c	; 0x21c <__bad_interrupt>
 1e0:	0c 94 0e 01 	jmp	0x21c	; 0x21c <__bad_interrupt>
 1e4:	0c 94 0e 01 	jmp	0x21c	; 0x21c <__bad_interrupt>
 1e8:	0c 94 0e 01 	jmp	0x21c	; 0x21c <__bad_interrupt>
 1ec:	0c 94 0e 01 	jmp	0x21c	; 0x21c <__bad_interrupt>
 1f0:	0c 94 0e 01 	jmp	0x21c	; 0x21c <__bad_interrupt>
 1f4:	0c 94 0e 01 	jmp	0x21c	; 0x21c <__bad_interrupt>
 1f8:	0c 94 0e 01 	jmp	0x21c	; 0x21c <__bad_interrupt>

000001fc <__ctors_end>:
 1fc:	11 24       	eor	r1, r1
 1fe:	1f be       	out	0x3f, r1	; 63
 200:	cf ef       	ldi	r28, 0xFF	; 255
 202:	cd bf       	out	0x3d, r28	; 61
 204:	df e3       	ldi	r29, 0x3F	; 63
 206:	de bf       	out	0x3e, r29	; 62
 208:	00 e0       	ldi	r16, 0x00	; 0
 20a:	0c bf       	out	0x3c, r16	; 60
 20c:	18 be       	out	0x38, r1	; 56
 20e:	19 be       	out	0x39, r1	; 57
 210:	1a be       	out	0x3a, r1	; 58
 212:	1b be       	out	0x3b, r1	; 59
 214:	0e 94 2a 01 	call	0x254	; 0x254 <main>
 218:	0c 94 43 01 	jmp	0x286	; 0x286 <_exit>

0000021c <__bad_interrupt>:
 21c:	0c 94 00 00 	jmp	0	; 0x0 <__vectors>

00000220 <PORTA_INIT>:
 */ 

#include "GPIO.h"

void PORTA_INIT(void)
{
 220:	cf 93       	push	r28
 222:	df 93       	push	r29
 224:	cd b7       	in	r28, 0x3d	; 61
 226:	de b7       	in	r29, 0x3e	; 62
	PORTA.DIRCLR = 0xFF; //sets all of PORTA to input
 228:	80 e0       	ldi	r24, 0x00	; 0
 22a:	96 e0       	ldi	r25, 0x06	; 6
 22c:	2f ef       	ldi	r18, 0xFF	; 255
 22e:	fc 01       	movw	r30, r24
 230:	22 83       	std	Z+2, r18	; 0x02
}
 232:	00 00       	nop
 234:	df 91       	pop	r29
 236:	cf 91       	pop	r28
 238:	08 95       	ret

0000023a <PORTC_INIT>:

void PORTC_INIT(void)
{
 23a:	cf 93       	push	r28
 23c:	df 93       	push	r29
 23e:	cd b7       	in	r28, 0x3d	; 61
 240:	de b7       	in	r29, 0x3e	; 62
	PORTA.DIRSET = 0xFF; //sets all of PORTF to Output
 242:	80 e0       	ldi	r24, 0x00	; 0
 244:	96 e0       	ldi	r25, 0x06	; 6
 246:	2f ef       	ldi	r18, 0xFF	; 255
 248:	fc 01       	movw	r30, r24
 24a:	21 83       	std	Z+1, r18	; 0x01
	
}
 24c:	00 00       	nop
 24e:	df 91       	pop	r29
 250:	cf 91       	pop	r28
 252:	08 95       	ret

00000254 <main>:
#include "GPIO.h"
#include "usart.h"


int main(void)
{
 254:	cf 93       	push	r28
 256:	df 93       	push	r29
 258:	1f 92       	push	r1
 25a:	1f 92       	push	r1
 25c:	cd b7       	in	r28, 0x3d	; 61
 25e:	de b7       	in	r29, 0x3e	; 62
	uint8_t switchData = 0;
 260:	19 82       	std	Y+1, r1	; 0x01
	uint8_t ledData = 0;
 262:	1a 82       	std	Y+2, r1	; 0x02
	
	PORTA_INIT();
 264:	0e 94 10 01 	call	0x220	; 0x220 <PORTA_INIT>
	PORTC_INIT();
 268:	0e 94 1d 01 	call	0x23a	; 0x23a <PORTC_INIT>
		
		
		//TODO: set up different game states
		//Preparation state, leds mapped directly
		
		switchData = PORTA.IN;
 26c:	80 e0       	ldi	r24, 0x00	; 0
 26e:	96 e0       	ldi	r25, 0x06	; 6
 270:	fc 01       	movw	r30, r24
 272:	80 85       	ldd	r24, Z+8	; 0x08
 274:	89 83       	std	Y+1, r24	; 0x01
		ledData = switchData;
 276:	89 81       	ldd	r24, Y+1	; 0x01
 278:	8a 83       	std	Y+2, r24	; 0x02
		PORTC.OUT = ledData;
 27a:	80 e4       	ldi	r24, 0x40	; 64
 27c:	96 e0       	ldi	r25, 0x06	; 6
 27e:	2a 81       	ldd	r18, Y+2	; 0x02
 280:	fc 01       	movw	r30, r24
 282:	24 83       	std	Z+4, r18	; 0x04
    }
 284:	f3 cf       	rjmp	.-26     	; 0x26c <main+0x18>

00000286 <_exit>:
 286:	f8 94       	cli

00000288 <__stop_program>:
 288:	ff cf       	rjmp	.-2      	; 0x288 <__stop_program>
